target datalayout = "e-m:e-p270:32:32-p271:32:32-p272:64:64-i64:64-i128:128-f80:128-n8:16:32:64-S128"
target triple = "x86_64-pc-linux-gnu"

%struct.rb_data_type_struct = type { ptr, %struct.anon.5, ptr, ptr, i64 }
%struct.anon.5 = type { ptr, ptr, ptr, ptr, [1 x ptr] }
%struct.rb_econv_t = type { i32, i32, ptr, ptr, ptr, i64, ptr, ptr, ptr, ptr, ptr, ptr, i32, i32, i32, i32, ptr, %struct.anon, ptr, ptr }
%struct.anon = type { i32, ptr, ptr, ptr, ptr, i64, i64 }
%struct.rb_econv_elem_t = type { ptr, ptr, ptr, ptr, ptr, i32 }
%struct.rb_transcoding = type { ptr, i32, i32, i32, i64, i8, i32, i64, i64, %union.anon, i64, i64, %union.anon.0, %union.rb_transcoding_state_t }
%union.anon = type { ptr }
%union.anon.0 = type { ptr }
%union.rb_transcoding_state_t = type { ptr }
%struct.RBasic = type { i64, i64 }
%struct.RData = type { %struct.RBasic, ptr, ptr, ptr }

@econv_data_type = internal constant %struct.rb_data_type_struct { ptr @.str.110, %struct.anon.5 { ptr null, ptr @econv_free, ptr @econv_memsize, ptr null, [1 x ptr] zeroinitializer }, ptr null, ptr null, i64 1 }, align 8
@rb_eTypeError = external global i64, align 8
@.str.119 = private unnamed_addr constant [33 x i8] c"uninitialized encoding converter\00", align 1

; Function Attrs: nounwind sspstrong uwtable
define internal ptr @check_econv(i64 noundef %0) #0 {
  %2 = alloca i64, align 8
  %3 = alloca ptr, align 8
  store i64 %0, ptr %2, align 8, !tbaa !12
  call void @llvm.lifetime.start.p0(i64 8, ptr %3) #25
  %4 = load i64, ptr %2, align 8, !tbaa !12
  %5 = call ptr @rb_check_typeddata(i64 noundef %4, ptr noundef @econv_data_type)
  store ptr %5, ptr %3, align 8, !tbaa !30
  %6 = load ptr, ptr %3, align 8, !tbaa !30
  %7 = icmp ne ptr %6, null
  br i1 %7, label %10, label %8

8:                                                ; preds = %1
  %9 = load i64, ptr @rb_eTypeError, align 8, !tbaa !12
  call void (i64, ptr, ...) @rb_raise(i64 noundef %9, ptr noundef @.str.119) #26
  unreachable

10:                                               ; preds = %1
  %11 = load ptr, ptr %3, align 8, !tbaa !30
  call void @llvm.lifetime.end.p0(i64 8, ptr %3) #25
  ret ptr %11
}

; Function Attrs: nounwind sspstrong uwtable
define internal i64 @econv_equal(i64 noundef %0, i64 noundef %1) #0 {
  %3 = alloca i64, align 8
  %4 = alloca i64, align 8
  %5 = alloca i64, align 8
  %6 = alloca ptr, align 8
  %7 = alloca ptr, align 8
  %8 = alloca i32, align 4
  %9 = alloca i32, align 4
  store i64 %0, ptr %4, align 8, !tbaa !12
  store i64 %1, ptr %5, align 8, !tbaa !12
  call void @llvm.lifetime.start.p0(i64 8, ptr %6) #25
  %10 = load i64, ptr %4, align 8, !tbaa !12
  %11 = call ptr @check_econv(i64 noundef %10)
  store ptr %11, ptr %6, align 8, !tbaa !30
  call void @llvm.lifetime.start.p0(i64 8, ptr %7) #25
  call void @llvm.lifetime.start.p0(i64 4, ptr %8) #25
  %12 = load i64, ptr %5, align 8, !tbaa !12
  %13 = call i32 @rb_typeddata_is_kind_of(i64 noundef %12, ptr noundef @econv_data_type)
  %14 = icmp ne i32 %13, 0
  br i1 %14, label %16, label %15

15:                                               ; preds = %2
  store i64 4, ptr %3, align 8
  store i32 1, ptr %9, align 4
  br label %161

16:                                               ; preds = %2
  %17 = load i64, ptr %5, align 8, !tbaa !12
  %18 = inttoptr i64 %17 to ptr
  %19 = getelementptr inbounds nuw %struct.RData, ptr %18, i32 0, i32 3
  %20 = load ptr, ptr %19, align 8, !tbaa !142
  store ptr %20, ptr %7, align 8, !tbaa !30
  %21 = load ptr, ptr %7, align 8, !tbaa !30
  %22 = icmp ne ptr %21, null
  br i1 %22, label %24, label %23

23:                                               ; preds = %16
  store i64 0, ptr %3, align 8
  store i32 1, ptr %9, align 4
  br label %161

24:                                               ; preds = %16
  %25 = load ptr, ptr %6, align 8, !tbaa !30
  %26 = getelementptr inbounds nuw %struct.rb_econv_t, ptr %25, i32 0, i32 2
  %27 = load ptr, ptr %26, align 8, !tbaa !45
  %28 = load ptr, ptr %7, align 8, !tbaa !30
  %29 = getelementptr inbounds nuw %struct.rb_econv_t, ptr %28, i32 0, i32 2
  %30 = load ptr, ptr %29, align 8, !tbaa !45
  %31 = icmp ne ptr %27, %30
  br i1 %31, label %32, label %42

32:                                               ; preds = %24
  %33 = load ptr, ptr %6, align 8, !tbaa !30
  %34 = getelementptr inbounds nuw %struct.rb_econv_t, ptr %33, i32 0, i32 2
  %35 = load ptr, ptr %34, align 8, !tbaa !45
  %36 = load ptr, ptr %7, align 8, !tbaa !30
  %37 = getelementptr inbounds nuw %struct.rb_econv_t, ptr %36, i32 0, i32 2
  %38 = load ptr, ptr %37, align 8, !tbaa !45
  %39 = call i32 @strcmp(ptr noundef %35, ptr noundef %38) #29
  %40 = icmp ne i32 %39, 0
  br i1 %40, label %41, label %42

41:                                               ; preds = %32
  store i64 0, ptr %3, align 8
  store i32 1, ptr %9, align 4
  br label %161

42:                                               ; preds = %32, %24
  %43 = load ptr, ptr %6, align 8, !tbaa !30
  %44 = getelementptr inbounds nuw %struct.rb_econv_t, ptr %43, i32 0, i32 3
  %45 = load ptr, ptr %44, align 8, !tbaa !46
  %46 = load ptr, ptr %7, align 8, !tbaa !30
  %47 = getelementptr inbounds nuw %struct.rb_econv_t, ptr %46, i32 0, i32 3
  %48 = load ptr, ptr %47, align 8, !tbaa !46
  %49 = icmp ne ptr %45, %48
  br i1 %49, label %50, label %60

50:                                               ; preds = %42
  %51 = load ptr, ptr %6, align 8, !tbaa !30
  %52 = getelementptr inbounds nuw %struct.rb_econv_t, ptr %51, i32 0, i32 3
  %53 = load ptr, ptr %52, align 8, !tbaa !46
  %54 = load ptr, ptr %7, align 8, !tbaa !30
  %55 = getelementptr inbounds nuw %struct.rb_econv_t, ptr %54, i32 0, i32 3
  %56 = load ptr, ptr %55, align 8, !tbaa !46
  %57 = call i32 @strcmp(ptr noundef %53, ptr noundef %56) #29
  %58 = icmp ne i32 %57, 0
  br i1 %58, label %59, label %60

59:                                               ; preds = %50
  store i64 0, ptr %3, align 8
  store i32 1, ptr %9, align 4
  br label %161

60:                                               ; preds = %50, %42
  %61 = load ptr, ptr %6, align 8, !tbaa !30
  %62 = getelementptr inbounds nuw %struct.rb_econv_t, ptr %61, i32 0, i32 0
  %63 = load i32, ptr %62, align 8, !tbaa !34
  %64 = load ptr, ptr %7, align 8, !tbaa !30
  %65 = getelementptr inbounds nuw %struct.rb_econv_t, ptr %64, i32 0, i32 0
  %66 = load i32, ptr %65, align 8, !tbaa !34
  %67 = icmp ne i32 %63, %66
  br i1 %67, label %68, label %69

68:                                               ; preds = %60
  store i64 0, ptr %3, align 8
  store i32 1, ptr %9, align 4
  br label %161

69:                                               ; preds = %60
  %70 = load ptr, ptr %6, align 8, !tbaa !30
  %71 = getelementptr inbounds nuw %struct.rb_econv_t, ptr %70, i32 0, i32 6
  %72 = load ptr, ptr %71, align 8, !tbaa !77
  %73 = load ptr, ptr %7, align 8, !tbaa !30
  %74 = getelementptr inbounds nuw %struct.rb_econv_t, ptr %73, i32 0, i32 6
  %75 = load ptr, ptr %74, align 8, !tbaa !77
  %76 = icmp ne ptr %72, %75
  br i1 %76, label %77, label %87

77:                                               ; preds = %69
  %78 = load ptr, ptr %6, align 8, !tbaa !30
  %79 = getelementptr inbounds nuw %struct.rb_econv_t, ptr %78, i32 0, i32 6
  %80 = load ptr, ptr %79, align 8, !tbaa !77
  %81 = load ptr, ptr %7, align 8, !tbaa !30
  %82 = getelementptr inbounds nuw %struct.rb_econv_t, ptr %81, i32 0, i32 6
  %83 = load ptr, ptr %82, align 8, !tbaa !77
  %84 = call i32 @strcmp(ptr noundef %80, ptr noundef %83) #29
  %85 = icmp ne i32 %84, 0
  br i1 %85, label %86, label %87

86:                                               ; preds = %77
  store i64 0, ptr %3, align 8
  store i32 1, ptr %9, align 4
  br label %161

87:                                               ; preds = %77, %69
  %88 = load ptr, ptr %6, align 8, !tbaa !30
  %89 = getelementptr inbounds nuw %struct.rb_econv_t, ptr %88, i32 0, i32 5
  %90 = load i64, ptr %89, align 8, !tbaa !76
  %91 = load ptr, ptr %7, align 8, !tbaa !30
  %92 = getelementptr inbounds nuw %struct.rb_econv_t, ptr %91, i32 0, i32 5
  %93 = load i64, ptr %92, align 8, !tbaa !76
  %94 = icmp ne i64 %90, %93
  br i1 %94, label %95, label %96

95:                                               ; preds = %87
  store i64 0, ptr %3, align 8
  store i32 1, ptr %9, align 4
  br label %161

96:                                               ; preds = %87
  %97 = load ptr, ptr %6, align 8, !tbaa !30
  %98 = getelementptr inbounds nuw %struct.rb_econv_t, ptr %97, i32 0, i32 4
  %99 = load ptr, ptr %98, align 8, !tbaa !55
  %100 = load ptr, ptr %7, align 8, !tbaa !30
  %101 = getelementptr inbounds nuw %struct.rb_econv_t, ptr %100, i32 0, i32 4
  %102 = load ptr, ptr %101, align 8, !tbaa !55
  %103 = icmp ne ptr %99, %102
  br i1 %103, label %104, label %117

104:                                              ; preds = %96
  %105 = load ptr, ptr %6, align 8, !tbaa !30
  %106 = getelementptr inbounds nuw %struct.rb_econv_t, ptr %105, i32 0, i32 4
  %107 = load ptr, ptr %106, align 8, !tbaa !55
  %108 = load ptr, ptr %7, align 8, !tbaa !30
  %109 = getelementptr inbounds nuw %struct.rb_econv_t, ptr %108, i32 0, i32 4
  %110 = load ptr, ptr %109, align 8, !tbaa !55
  %111 = load ptr, ptr %7, align 8, !tbaa !30
  %112 = getelementptr inbounds nuw %struct.rb_econv_t, ptr %111, i32 0, i32 5
  %113 = load i64, ptr %112, align 8, !tbaa !76
  %114 = call i32 @memcmp(ptr noundef %107, ptr noundef %110, i64 noundef %113) #29
  %115 = icmp ne i32 %114, 0
  br i1 %115, label %116, label %117

116:                                              ; preds = %104
  store i64 0, ptr %3, align 8
  store i32 1, ptr %9, align 4
  br label %161

117:                                              ; preds = %104, %96
  %118 = load ptr, ptr %6, align 8, !tbaa !30
  %119 = getelementptr inbounds nuw %struct.rb_econv_t, ptr %118, i32 0, i32 14
  %120 = load i32, ptr %119, align 8, !tbaa !47
  %121 = load ptr, ptr %7, align 8, !tbaa !30
  %122 = getelementptr inbounds nuw %struct.rb_econv_t, ptr %121, i32 0, i32 14
  %123 = load i32, ptr %122, align 8, !tbaa !47
  %124 = icmp ne i32 %120, %123
  br i1 %124, label %125, label %126

125:                                              ; preds = %117
  store i64 0, ptr %3, align 8
  store i32 1, ptr %9, align 4
  br label %161

126:                                              ; preds = %117
  store i32 0, ptr %8, align 4, !tbaa !29
  br label %127

127:                                              ; preds = %157, %126
  %128 = load i32, ptr %8, align 4, !tbaa !29
  %129 = load ptr, ptr %6, align 8, !tbaa !30
  %130 = getelementptr inbounds nuw %struct.rb_econv_t, ptr %129, i32 0, i32 14
  %131 = load i32, ptr %130, align 8, !tbaa !47
  %132 = icmp slt i32 %128, %131
  br i1 %132, label %133, label %160

133:                                              ; preds = %127
  %134 = load ptr, ptr %6, align 8, !tbaa !30
  %135 = getelementptr inbounds nuw %struct.rb_econv_t, ptr %134, i32 0, i32 11
  %136 = load ptr, ptr %135, align 8, !tbaa !48
  %137 = load i32, ptr %8, align 4, !tbaa !29
  %138 = sext i32 %137 to i64
  %139 = getelementptr %struct.rb_econv_elem_t, ptr %136, i64 %138
  %140 = getelementptr inbounds nuw %struct.rb_econv_elem_t, ptr %139, i32 0, i32 0
  %141 = load ptr, ptr %140, align 8, !tbaa !49
  %142 = getelementptr inbounds nuw %struct.rb_transcoding, ptr %141, i32 0, i32 0
  %143 = load ptr, ptr %142, align 8, !tbaa !51
  %144 = load ptr, ptr %7, align 8, !tbaa !30
  %145 = getelementptr inbounds nuw %struct.rb_econv_t, ptr %144, i32 0, i32 11
  %146 = load ptr, ptr %145, align 8, !tbaa !48
  %147 = load i32, ptr %8, align 4, !tbaa !29
  %148 = sext i32 %147 to i64
  %149 = getelementptr %struct.rb_econv_elem_t, ptr %146, i64 %148
  %150 = getelementptr inbounds nuw %struct.rb_econv_elem_t, ptr %149, i32 0, i32 0
  %151 = load ptr, ptr %150, align 8, !tbaa !49
  %152 = getelementptr inbounds nuw %struct.rb_transcoding, ptr %151, i32 0, i32 0
  %153 = load ptr, ptr %152, align 8, !tbaa !51
  %154 = icmp ne ptr %143, %153
  br i1 %154, label %155, label %156

155:                                              ; preds = %133
  store i64 0, ptr %3, align 8
  store i32 1, ptr %9, align 4
  br label %161

156:                                              ; preds = %133
  br label %157

157:                                              ; preds = %156
  %158 = load i32, ptr %8, align 4, !tbaa !29
  %159 = add i32 %158, 1
  store i32 %159, ptr %8, align 4, !tbaa !29
  br label %127, !llvm.loop !145

160:                                              ; preds = %127
  store i64 20, ptr %3, align 8
  store i32 1, ptr %9, align 4
  br label %161

161:                                              ; preds = %160, %155, %125, %116, %95, %86, %68, %59, %41, %23, %15
  call void @llvm.lifetime.end.p0(i64 4, ptr %8) #25
  call void @llvm.lifetime.end.p0(i64 8, ptr %7) #25
  call void @llvm.lifetime.end.p0(i64 8, ptr %6) #25
  %162 = load i64, ptr %3, align 8
  ret i64 %162
}