; Function Attrs: nounwind sspstrong uwtable
define internal range(i64 0, 21) i64 @econv_equal(i64 noundef %0, i64 noundef %1) #0 {
  %3 = tail call ptr @rb_check_typeddata(i64 noundef %0, ptr noundef nonnull @econv_data_type) #22
  %.not.i = icmp eq ptr %3, null
  br i1 %.not.i, label %4, label %check_econv.exit

4:                                                ; preds = %2
  %5 = load i64, ptr @rb_eTypeError, align 8, !tbaa !22
  tail call void (i64, ptr, ...) @rb_raise(i64 noundef %5, ptr noundef nonnull @.str.119) #23
  unreachable

check_econv.exit:                                 ; preds = %2
  %6 = tail call i32 @rb_typeddata_is_kind_of(i64 noundef %1, ptr noundef nonnull @econv_data_type) #22
  %.not = icmp eq i32 %6, 0
  br i1 %.not, label %.loopexit, label %7

7:                                                ; preds = %check_econv.exit
  %8 = inttoptr i64 %1 to ptr
  %9 = getelementptr inbounds nuw i8, ptr %8, i64 32
  %10 = load ptr, ptr %9, align 8, !tbaa !203
  %.not45 = icmp eq ptr %10, null
  br i1 %.not45, label %.loopexit, label %11

11:                                               ; preds = %7
  %12 = getelementptr inbounds nuw i8, ptr %3, i64 8
  %13 = load ptr, ptr %12, align 8, !tbaa !56
  %14 = getelementptr inbounds nuw i8, ptr %10, i64 8
  %15 = load ptr, ptr %14, align 8, !tbaa !56
  %.not46 = icmp eq ptr %13, %15
  br i1 %.not46, label %18, label %16

16:                                               ; preds = %11
  %17 = tail call i32 @strcmp(ptr noundef nonnull dereferenceable(1) %13, ptr noundef nonnull dereferenceable(1) %15) #25
  %.not47 = icmp eq i32 %17, 0
  br i1 %.not47, label %18, label %.loopexit

18:                                               ; preds = %16, %11
  %19 = getelementptr inbounds nuw i8, ptr %3, i64 16
  %20 = load ptr, ptr %19, align 8, !tbaa !57
  %21 = getelementptr inbounds nuw i8, ptr %10, i64 16
  %22 = load ptr, ptr %21, align 8, !tbaa !57
  %.not48 = icmp eq ptr %20, %22
  br i1 %.not48, label %25, label %23

23:                                               ; preds = %18
  %24 = tail call i32 @strcmp(ptr noundef nonnull dereferenceable(1) %20, ptr noundef nonnull dereferenceable(1) %22) #25
  %.not49 = icmp eq i32 %24, 0
  br i1 %.not49, label %25, label %.loopexit

25:                                               ; preds = %23, %18
  %26 = load i32, ptr %3, align 8, !tbaa !55
  %27 = load i32, ptr %10, align 8, !tbaa !55
  %.not50 = icmp eq i32 %26, %27
  br i1 %.not50, label %28, label %.loopexit

28:                                               ; preds = %25
  %29 = getelementptr inbounds nuw i8, ptr %3, i64 40
  %30 = load ptr, ptr %29, align 8, !tbaa !97
  %31 = getelementptr inbounds nuw i8, ptr %10, i64 40
  %32 = load ptr, ptr %31, align 8, !tbaa !97
  %.not51 = icmp eq ptr %30, %32
  br i1 %.not51, label %35, label %33

33:                                               ; preds = %28
  %34 = tail call i32 @strcmp(ptr noundef nonnull dereferenceable(1) %30, ptr noundef nonnull dereferenceable(1) %32) #25
  %.not52 = icmp eq i32 %34, 0
  br i1 %.not52, label %35, label %.loopexit

35:                                               ; preds = %33, %28
  %36 = getelementptr inbounds nuw i8, ptr %3, i64 32
  %37 = load i64, ptr %36, align 8, !tbaa !96
  %38 = getelementptr inbounds nuw i8, ptr %10, i64 32
  %39 = load i64, ptr %38, align 8, !tbaa !96
  %.not53 = icmp eq i64 %37, %39
  br i1 %.not53, label %40, label %.loopexit

40:                                               ; preds = %35
  %41 = getelementptr inbounds nuw i8, ptr %3, i64 24
  %42 = load ptr, ptr %41, align 8, !tbaa !74
  %43 = getelementptr inbounds nuw i8, ptr %10, i64 24
  %44 = load ptr, ptr %43, align 8, !tbaa !74
  %.not54 = icmp eq ptr %42, %44
  br i1 %.not54, label %46, label %45

45:                                               ; preds = %40
  %bcmp = tail call i32 @bcmp(ptr %42, ptr %44, i64 %37)
  %.not55 = icmp eq i32 %bcmp, 0
  br i1 %.not55, label %46, label %.loopexit

46:                                               ; preds = %45, %40
  %47 = getelementptr inbounds nuw i8, ptr %3, i64 96
  %48 = load i32, ptr %47, align 8, !tbaa !46
  %49 = getelementptr inbounds nuw i8, ptr %10, i64 96
  %50 = load i32, ptr %49, align 8, !tbaa !46
  %.not56 = icmp eq i32 %48, %50
  br i1 %.not56, label %.preheader, label %.loopexit

.preheader:                                       ; preds = %46
  %51 = icmp sgt i32 %48, 0
  br i1 %51, label %.lr.ph, label %.loopexit

.lr.ph:                                           ; preds = %.preheader
  %52 = getelementptr inbounds nuw i8, ptr %3, i64 80
  %53 = load ptr, ptr %52, align 8, !tbaa !47
  %54 = getelementptr inbounds nuw i8, ptr %10, i64 80
  %55 = load ptr, ptr %54, align 8, !tbaa !47
  %wide.trip.count = zext nneg i32 %48 to i64
  br label %57

56:                                               ; preds = %57
  %indvars.iv.next = add nuw nsw i64 %indvars.iv, 1
  %exitcond.not = icmp eq i64 %indvars.iv.next, %wide.trip.count
  br i1 %exitcond.not, label %.loopexit, label %57, !llvm.loop !248

57:                                               ; preds = %.lr.ph, %56
  %indvars.iv = phi i64 [ 0, %.lr.ph ], [ %indvars.iv.next, %56 ]
  %58 = getelementptr %struct.rb_econv_elem_t, ptr %53, i64 %indvars.iv
  %59 = load ptr, ptr %58, align 8, !tbaa !63
  %60 = load ptr, ptr %59, align 8, !tbaa !65
  %61 = getelementptr %struct.rb_econv_elem_t, ptr %55, i64 %indvars.iv
  %62 = load ptr, ptr %61, align 8, !tbaa !63
  %63 = load ptr, ptr %62, align 8, !tbaa !65
  %.not57 = icmp eq ptr %60, %63
  br i1 %.not57, label %56, label %.loopexit

.loopexit:                                        ; preds = %57, %56, %.preheader, %46, %45, %35, %33, %25, %23, %16, %7, %check_econv.exit
  %.034 = phi i64 [ 4, %check_econv.exit ], [ 0, %7 ], [ 0, %16 ], [ 0, %23 ], [ 0, %25 ], [ 0, %33 ], [ 0, %35 ], [ 0, %45 ], [ 0, %46 ], [ 20, %.preheader ], [ 0, %57 ], [ 20, %56 ]
  ret i64 %.034
}